target datalayout = "e-m:e-p270:32:32-p271:32:32-p272:64:64-i64:64-i128:128-f80:128-n8:16:32:64-S128"
target triple = "x86_64-pc-linux-gnu"

%struct.cli_ctx_tag = type { ptr, ptr, ptr, ptr, ptr, ptr, ptr, i64, ptr, i32, i32, ptr, i32, i32, ptr, [16 x i8], ptr, ptr, ptr, ptr, ptr, ptr, %struct.timeval, i8, i8 }
%struct.timeval = type { i64, i64 }
%struct.cl_fmap = type { ptr, ptr, ptr, i64, i64, i64, i64, i8, i8, i8, i64, i64, i64, i64, ptr, ptr, ptr, ptr, ptr, ptr, ptr, i8, [16 x i8], i8, [20 x i8], i8, [32 x i8], ptr, ptr }
%struct.cl_engine = type { i32, i32, i32, [2 x i32], i32, i32, i32, ptr, i32, i64, i32, i32, i64, i64, i32, i32, i32, i32, ptr, ptr, ptr, ptr, ptr, ptr, ptr, ptr, ptr, ptr, ptr, ptr, ptr, ptr, ptr, ptr, ptr, ptr, ptr, i64, ptr, %struct.crtmgr, ptr, ptr, ptr, ptr, ptr, ptr, ptr, ptr, ptr, ptr, ptr, ptr, ptr, ptr, ptr, ptr, ptr, %struct.cli_all_bc, [7 x ptr], [7 x i32], i32, i32, i32, i32, i64, i64, i64, i64, i64, ptr, ptr, ptr, ptr, ptr, ptr, ptr, ptr, ptr, i32, i32, i32, i64, i64, i64, ptr }
%struct.crtmgr = type { ptr, i32 }
%struct.cli_all_bc = type { ptr, i32, ptr, %struct.cli_environment, i32 }
%struct.cli_environment = type { i32, i32, i32, i32, i32, i32, i32, [65 x i8], [65 x i8], [65 x i8], [65 x i8], [65 x i8], [65 x i8], [65 x i8], i8, i8, i8, i8, i8, i8, i8, i8, i8 }
%struct.CLI_XZ = type { %struct.CXzUnpacker, i32, ptr, ptr, i64, i64 }
%struct.CXzUnpacker = type { i32, i32, i32, i32, i16, i32, i64, i64, i64, i64, i64, i64, i64, i32, %struct.CMixCoder, %struct.CXzBlock, %struct.CXzCheck, ptr, [32 x i8], [1024 x i8] }
%struct.CMixCoder = type { ptr, ptr, i32, [3 x i32], [3 x i64], [3 x i64], [4 x i64], [4 x %struct._IStateCoder] }
%struct._IStateCoder = type { ptr, ptr, ptr, ptr, ptr }
%struct.CXzBlock = type { i64, i64, i8, [4 x %struct.CXzFilter] }
%struct.CXzFilter = type { i64, i32, [20 x i8] }
%struct.CXzCheck = type { i32, i32, i64, ptr }

@.str.175 = private unnamed_addr constant [45 x i8] c"cli_scanxz: nomemory for decompress buffer.\0A\00", align 1
@.str.176 = private unnamed_addr constant [39 x i8] c"cli_scanxz: DecompressInit failed: %i\0A\00", align 1
@.str.177 = private unnamed_addr constant [44 x i8] c"cli_scanxz: Can't generate temporary file.\0A\00", align 1
@.str.178 = private unnamed_addr constant [38 x i8] c"cli_scanxz: decompressing to file %s\0A\00", align 1
@.str.179 = private unnamed_addr constant [48 x i8] c"cli_scanxz: premature end of compressed stream\0A\00", align 1
@.str.180 = private unnamed_addr constant [27 x i8] c"Heuristics.XZ.DicSizeLimit\00", align 1
@.str.181 = private unnamed_addr constant [34 x i8] c"cli_scanxz: decompress error: %d\0A\00", align 1
@.str.182 = private unnamed_addr constant [34 x i8] c"cli_scanxz: Can't write to file.\0A\00", align 1
@.str.183 = private unnamed_addr constant [11 x i8] c"cli_scanxz\00", align 1
@.str.184 = private unnamed_addr constant [75 x i8] c"cli_scanxz: decompress file size exceeds limits - only scanning %li bytes\0A\00", align 1

; Function Attrs: nounwind uwtable
define internal ptr @fmap_need_off_once(ptr noundef %0, i64 noundef %1, i64 noundef %2) #0 {
  %4 = alloca ptr, align 8
  %5 = alloca i64, align 8
  %6 = alloca i64, align 8
  store ptr %0, ptr %4, align 8
  store i64 %1, ptr %5, align 8
  store i64 %2, ptr %6, align 8
  %7 = load ptr, ptr %4, align 8
  %8 = getelementptr inbounds %struct.cl_fmap, ptr %7, i32 0, i32 15
  %9 = load ptr, ptr %8, align 8
  %10 = load ptr, ptr %4, align 8
  %11 = load i64, ptr %5, align 8
  %12 = load i64, ptr %6, align 8
  %13 = call ptr %9(ptr noundef %10, i64 noundef %11, i64 noundef %12, i32 noundef 0)
  ret ptr %13
}

; Function Attrs: nounwind uwtable
define i32 @cli_magic_scan_desc(i32 noundef %0, ptr noundef %1, ptr noundef %2, ptr noundef %3, i32 noundef %4) #0 {
  %6 = alloca i32, align 4
  %7 = alloca ptr, align 8
  %8 = alloca ptr, align 8
  %9 = alloca ptr, align 8
  %10 = alloca i32, align 4
  store i32 %0, ptr %6, align 4
  store ptr %1, ptr %7, align 8
  store ptr %2, ptr %8, align 8
  store ptr %3, ptr %9, align 8
  store i32 %4, ptr %10, align 4
  %11 = load i32, ptr %6, align 4
  %12 = load ptr, ptr %7, align 8
  %13 = load ptr, ptr %8, align 8
  %14 = load ptr, ptr %9, align 8
  %15 = load i32, ptr %10, align 4
  %16 = call i32 @cli_magic_scan_desc_type(i32 noundef %11, ptr noundef %12, ptr noundef %13, i32 noundef 0, ptr noundef %14, i32 noundef %15)
  ret i32 %16
}

; Function Attrs: nounwind uwtable
define internal ptr @fmap_need_off_once_len(ptr noundef %0, i64 noundef %1, i64 noundef %2, ptr noundef %3) #0 {
  %5 = alloca ptr, align 8
  %6 = alloca ptr, align 8
  %7 = alloca i64, align 8
  %8 = alloca i64, align 8
  %9 = alloca ptr, align 8
  %10 = alloca ptr, align 8
  store ptr %0, ptr %6, align 8
  store i64 %1, ptr %7, align 8
  store i64 %2, ptr %8, align 8
  store ptr %3, ptr %9, align 8
  %11 = load i64, ptr %7, align 8
  %12 = load ptr, ptr %6, align 8
  %13 = getelementptr inbounds %struct.cl_fmap, ptr %12, i32 0, i32 13
  %14 = load i64, ptr %13, align 8
  %15 = icmp uge i64 %11, %14
  br i1 %15, label %16, label %18

16:                                               ; preds = %4
  %17 = load ptr, ptr %9, align 8
  store i64 0, ptr %17, align 8
  store ptr null, ptr %5, align 8
  br label %46

18:                                               ; preds = %4
  %19 = load i64, ptr %8, align 8
  %20 = load ptr, ptr %6, align 8
  %21 = getelementptr inbounds %struct.cl_fmap, ptr %20, i32 0, i32 13
  %22 = load i64, ptr %21, align 8
  %23 = load i64, ptr %7, align 8
  %24 = sub i64 %22, %23
  %25 = icmp ugt i64 %19, %24
  br i1 %25, label %26, label %32

26:                                               ; preds = %18
  %27 = load ptr, ptr %6, align 8
  %28 = getelementptr inbounds %struct.cl_fmap, ptr %27, i32 0, i32 13
  %29 = load i64, ptr %28, align 8
  %30 = load i64, ptr %7, align 8
  %31 = sub i64 %29, %30
  store i64 %31, ptr %8, align 8
  br label %32

32:                                               ; preds = %26, %18
  %33 = load ptr, ptr %6, align 8
  %34 = load i64, ptr %7, align 8
  %35 = load i64, ptr %8, align 8
  %36 = call ptr @fmap_need_off_once(ptr noundef %33, i64 noundef %34, i64 noundef %35)
  store ptr %36, ptr %10, align 8
  %37 = load ptr, ptr %10, align 8
  %38 = icmp ne ptr %37, null
  br i1 %38, label %39, label %41

39:                                               ; preds = %32
  %40 = load i64, ptr %8, align 8
  br label %42

41:                                               ; preds = %32
  br label %42

42:                                               ; preds = %41, %39
  %43 = phi i64 [ %40, %39 ], [ 0, %41 ]
  %44 = load ptr, ptr %9, align 8
  store i64 %43, ptr %44, align 8
  %45 = load ptr, ptr %10, align 8
  store ptr %45, ptr %5, align 8
  br label %46

46:                                               ; preds = %42, %16
  %47 = load ptr, ptr %5, align 8
  ret ptr %47
}

; Function Attrs: nounwind uwtable
define internal i32 @cli_scanxz(ptr noundef %0) #0 {
  %2 = alloca i32, align 4
  %3 = alloca ptr, align 8
  %4 = alloca i32, align 4
  %5 = alloca i32, align 4
  %6 = alloca i32, align 4
  %7 = alloca i64, align 8
  %8 = alloca ptr, align 8
  %9 = alloca %struct.CLI_XZ, align 8
  %10 = alloca i64, align 8
  %11 = alloca i64, align 8
  %12 = alloca ptr, align 8
  %13 = alloca i64, align 8
  store ptr %0, ptr %3, align 8
  store i32 0, ptr %4, align 4
  store i64 0, ptr %7, align 8
  store i64 0, ptr %10, align 8
  %14 = call noalias ptr @malloc(i64 noundef 1048576) #10
  store ptr %14, ptr %12, align 8
  %15 = load ptr, ptr %12, align 8
  %16 = icmp eq ptr %15, null
  br i1 %16, label %17, label %18

17:                                               ; preds = %1
  call void (ptr, ...) @cli_errmsg(ptr noundef @.str.175)
  store i32 20, ptr %2, align 4
  br label %138

18:                                               ; preds = %1
  call void @llvm.memset.p0.i64(ptr align 8 %9, i8 0, i64 1640, i1 false)
  %19 = load ptr, ptr %12, align 8
  %20 = getelementptr inbounds %struct.CLI_XZ, ptr %9, i32 0, i32 3
  store ptr %19, ptr %20, align 8
  %21 = getelementptr inbounds %struct.CLI_XZ, ptr %9, i32 0, i32 5
  store i64 1048576, ptr %21, align 8
  %22 = call i32 @cli_XzInit(ptr noundef %9)
  store i32 %22, ptr %6, align 4
  %23 = load i32, ptr %6, align 4
  %24 = icmp ne i32 %23, 0
  br i1 %24, label %25, label %28

25:                                               ; preds = %18
  %26 = load i32, ptr %6, align 4
  call void (ptr, ...) @cli_errmsg(ptr noundef @.str.176, i32 noundef %26)
  %27 = load ptr, ptr %12, align 8
  call void @free(ptr noundef %27) #11
  store i32 8, ptr %2, align 4
  br label %138

28:                                               ; preds = %18
  %29 = load ptr, ptr %3, align 8
  %30 = getelementptr inbounds %struct.cli_ctx_tag, ptr %29, i32 0, i32 2
  %31 = load ptr, ptr %30, align 8
  %32 = call i32 @cli_gentempfd(ptr noundef %31, ptr noundef %8, ptr noundef %5)
  store i32 %32, ptr %4, align 4
  %33 = icmp ne i32 %32, 0
  br i1 %33, label %34, label %37

34:                                               ; preds = %28
  call void (ptr, ...) @cli_errmsg(ptr noundef @.str.177)
  call void @cli_XzShutdown(ptr noundef %9)
  %35 = load ptr, ptr %12, align 8
  call void @free(ptr noundef %35) #11
  %36 = load i32, ptr %4, align 4
  store i32 %36, ptr %2, align 4
  br label %138

37:                                               ; preds = %28
  %38 = load ptr, ptr %8, align 8
  call void (ptr, ...) @cli_dbgmsg(ptr noundef @.str.178, ptr noundef %38)
  br label %39

39:                                               ; preds = %108, %37
  %40 = getelementptr inbounds %struct.CLI_XZ, ptr %9, i32 0, i32 4
  %41 = load i64, ptr %40, align 8
  %42 = icmp ne i64 %41, 0
  br i1 %42, label %60, label %43

43:                                               ; preds = %39
  %44 = load ptr, ptr %3, align 8
  %45 = getelementptr inbounds %struct.cli_ctx_tag, ptr %44, i32 0, i32 14
  %46 = load ptr, ptr %45, align 8
  %47 = load i64, ptr %10, align 8
  %48 = call ptr @fmap_need_off_once_len(ptr noundef %46, i64 noundef %47, i64 noundef 262144, ptr noundef %11)
  %49 = getelementptr inbounds %struct.CLI_XZ, ptr %9, i32 0, i32 2
  store ptr %48, ptr %49, align 8
  %50 = load i64, ptr %11, align 8
  %51 = getelementptr inbounds %struct.CLI_XZ, ptr %9, i32 0, i32 4
  store i64 %50, ptr %51, align 8
  %52 = load i64, ptr %11, align 8
  %53 = load i64, ptr %10, align 8
  %54 = add i64 %53, %52
  store i64 %54, ptr %10, align 8
  %55 = getelementptr inbounds %struct.CLI_XZ, ptr %9, i32 0, i32 4
  %56 = load i64, ptr %55, align 8
  %57 = icmp ne i64 %56, 0
  br i1 %57, label %59, label %58

58:                                               ; preds = %43
  call void (ptr, ...) @cli_errmsg(ptr noundef @.str.179)
  store i32 26, ptr %4, align 4
  br label %116

59:                                               ; preds = %43
  br label %60

60:                                               ; preds = %59, %39
  %61 = call i32 @cli_XzDecode(ptr noundef %9)
  store i32 %61, ptr %6, align 4
  %62 = load i32, ptr %6, align 4
  %63 = icmp ne i32 0, %62
  br i1 %63, label %64, label %75

64:                                               ; preds = %60
  %65 = load i32, ptr %6, align 4
  %66 = icmp ne i32 2, %65
  br i1 %66, label %67, label %75

67:                                               ; preds = %64
  %68 = load i32, ptr %6, align 4
  %69 = icmp eq i32 %68, 3
  br i1 %69, label %70, label %73

70:                                               ; preds = %67
  %71 = load ptr, ptr %3, align 8
  %72 = call i32 @cli_append_potentially_unwanted(ptr noundef %71, ptr noundef @.str.180)
  store i32 %72, ptr %4, align 4
  br label %116

73:                                               ; preds = %67
  %74 = load i32, ptr %6, align 4
  call void (ptr, ...) @cli_errmsg(ptr noundef @.str.181, i32 noundef %74)
  store i32 26, ptr %4, align 4
  br label %116

75:                                               ; preds = %64, %60
  %76 = getelementptr inbounds %struct.CLI_XZ, ptr %9, i32 0, i32 5
  %77 = load i64, ptr %76, align 8
  %78 = icmp ne i64 %77, 0
  br i1 %78, label %79, label %82

79:                                               ; preds = %75
  %80 = load i32, ptr %6, align 4
  %81 = icmp eq i32 %80, 2
  br i1 %81, label %82, label %107

82:                                               ; preds = %79, %75
  %83 = getelementptr inbounds %struct.CLI_XZ, ptr %9, i32 0, i32 5
  %84 = load i64, ptr %83, align 8
  %85 = sub i64 1048576, %84
  store i64 %85, ptr %13, align 8
  %86 = load i64, ptr %13, align 8
  %87 = load i64, ptr %7, align 8
  %88 = add i64 %87, %86
  store i64 %88, ptr %7, align 8
  %89 = load i32, ptr %5, align 4
  %90 = load ptr, ptr %12, align 8
  %91 = load i64, ptr %13, align 8
  %92 = call i64 @cli_writen(i32 noundef %89, ptr noundef %90, i64 noundef %91)
  %93 = load i64, ptr %13, align 8
  %94 = icmp ne i64 %92, %93
  br i1 %94, label %95, label %96

95:                                               ; preds = %82
  call void (ptr, ...) @cli_errmsg(ptr noundef @.str.182)
  store i32 14, ptr %4, align 4
  br label %116

96:                                               ; preds = %82
  %97 = load ptr, ptr %3, align 8
  %98 = load i64, ptr %7, align 8
  %99 = call i32 @cli_checklimits(ptr noundef @.str.183, ptr noundef %97, i64 noundef %98, i64 noundef 0, i64 noundef 0)
  %100 = icmp ne i32 %99, 0
  br i1 %100, label %101, label %103

101:                                              ; preds = %96
  %102 = load i64, ptr %7, align 8
  call void (ptr, ...) @cli_warnmsg(ptr noundef @.str.184, i64 noundef %102)
  br label %111

103:                                              ; preds = %96
  %104 = load ptr, ptr %12, align 8
  %105 = getelementptr inbounds %struct.CLI_XZ, ptr %9, i32 0, i32 3
  store ptr %104, ptr %105, align 8
  %106 = getelementptr inbounds %struct.CLI_XZ, ptr %9, i32 0, i32 5
  store i64 1048576, ptr %106, align 8
  br label %107

107:                                              ; preds = %103, %79
  br label %108

108:                                              ; preds = %107
  %109 = load i32, ptr %6, align 4
  %110 = icmp ne i32 2, %109
  br i1 %110, label %39, label %111

111:                                              ; preds = %108, %101
  %112 = load i32, ptr %5, align 4
  %113 = load ptr, ptr %8, align 8
  %114 = load ptr, ptr %3, align 8
  %115 = call i32 @cli_magic_scan_desc(i32 noundef %112, ptr noundef %113, ptr noundef %114, ptr noundef null, i32 noundef 0)
  store i32 %115, ptr %4, align 4
  br label %116

116:                                              ; preds = %111, %95, %73, %70, %58
  call void @cli_XzShutdown(ptr noundef %9)
  %117 = load i32, ptr %5, align 4
  %118 = call i32 @close(i32 noundef %117)
  %119 = load ptr, ptr %3, align 8
  %120 = getelementptr inbounds %struct.cli_ctx_tag, ptr %119, i32 0, i32 6
  %121 = load ptr, ptr %120, align 8
  %122 = getelementptr inbounds %struct.cl_engine, ptr %121, i32 0, i32 8
  %123 = load i32, ptr %122, align 8
  %124 = icmp ne i32 %123, 0
  br i1 %124, label %134, label %125

125:                                              ; preds = %116
  %126 = load ptr, ptr %8, align 8
  %127 = call i32 @cli_unlink(ptr noundef %126)
  %128 = icmp ne i32 %127, 0
  br i1 %128, label %129, label %133

129:                                              ; preds = %125
  %130 = load i32, ptr %4, align 4
  %131 = icmp eq i32 %130, 0
  br i1 %131, label %132, label %133

132:                                              ; preds = %129
  store i32 10, ptr %4, align 4
  br label %133

133:                                              ; preds = %132, %129, %125
  br label %134

134:                                              ; preds = %133, %116
  %135 = load ptr, ptr %8, align 8
  call void @free(ptr noundef %135) #11
  %136 = load ptr, ptr %12, align 8
  call void @free(ptr noundef %136) #11
  %137 = load i32, ptr %4, align 4
  store i32 %137, ptr %2, align 4
  br label %138

138:                                              ; preds = %134, %34, %25, %17
  %139 = load i32, ptr %2, align 4
  ret i32 %139
}