; Function Attrs: nounwind uwtable
define internal fastcc i32 @cli_scanxz(ptr noundef %0) unnamed_addr #0 {
  %2 = alloca i32, align 4
  %3 = alloca ptr, align 8
  %4 = alloca %struct.CLI_XZ, align 8
  %5 = tail call noalias dereferenceable_or_null(1048576) ptr @malloc(i64 noundef 1048576) #18
  %6 = icmp eq ptr %5, null
  br i1 %6, label %7, label %8

7:                                                ; preds = %1
  tail call void (ptr, ...) @cli_errmsg(ptr noundef nonnull @.str.175) #16
  br label %70

8:                                                ; preds = %1
  call void @llvm.memset.p0.i64(ptr noundef nonnull align 8 dereferenceable(1640) %4, i8 0, i64 1632, i1 false)
  %9 = getelementptr inbounds nuw i8, ptr %4, i64 1616
  store ptr %5, ptr %9, align 8
  %10 = getelementptr inbounds nuw i8, ptr %4, i64 1632
  store i64 1048576, ptr %10, align 8
  %11 = call i32 @cli_XzInit(ptr noundef nonnull %4) #16
  %.not = icmp eq i32 %11, 0
  br i1 %.not, label %13, label %12

12:                                               ; preds = %8
  call void (ptr, ...) @cli_errmsg(ptr noundef nonnull @.str.176, i32 noundef %11) #16
  call void @free(ptr noundef nonnull %5) #16
  br label %70

13:                                               ; preds = %8
  %14 = getelementptr inbounds nuw i8, ptr %0, i64 16
  %15 = load ptr, ptr %14, align 8
  %16 = call i32 @cli_gentempfd(ptr noundef %15, ptr noundef nonnull %3, ptr noundef nonnull %2) #16
  %.not46 = icmp eq i32 %16, 0
  br i1 %.not46, label %.split, label %17

17:                                               ; preds = %13
  call void (ptr, ...) @cli_errmsg(ptr noundef nonnull @.str.177) #16
  call void @cli_XzShutdown(ptr noundef nonnull %4) #16
  call void @free(ptr noundef nonnull %5) #16
  br label %70

.split:                                           ; preds = %13
  %18 = load ptr, ptr %3, align 8
  call void (ptr, ...) @cli_dbgmsg(ptr noundef nonnull @.str.178, ptr noundef %18) #16
  %19 = getelementptr inbounds nuw i8, ptr %4, i64 1624
  %20 = getelementptr inbounds nuw i8, ptr %0, i64 96
  %21 = getelementptr inbounds nuw i8, ptr %4, i64 1608
  br label %22

22:                                               ; preds = %52, %.split
  %.040 = phi i64 [ 0, %.split ], [ %.141, %52 ]
  %.038 = phi i64 [ 0, %.split ], [ %.139, %52 ]
  %23 = load i64, ptr %19, align 8
  %.not47 = icmp eq i64 %23, 0
  br i1 %.not47, label %24, label %34

24:                                               ; preds = %22
  %25 = load ptr, ptr %20, align 8
  %26 = getelementptr inbounds nuw i8, ptr %25, i64 88
  %27 = load i64, ptr %26, align 8
  %.not.i = icmp ult i64 %.038, %27
  br i1 %.not.i, label %28, label %fmap_need_off_once_len.exit.thread

28:                                               ; preds = %24
  %29 = sub nuw i64 %27, %.038
  %spec.select.i = call i64 @llvm.umin.i64(i64 %29, i64 262144)
  %30 = getelementptr inbounds nuw i8, ptr %25, i64 104
  %31 = load ptr, ptr %30, align 8
  %32 = call ptr %31(ptr noundef nonnull %25, i64 noundef %.038, i64 noundef %spec.select.i, i32 noundef 0) #16
  %.not20.i = icmp eq ptr %32, null
  br i1 %.not20.i, label %fmap_need_off_once_len.exit.thread, label %fmap_need_off_once_len.exit

fmap_need_off_once_len.exit.thread:               ; preds = %24, %28
  store ptr null, ptr %21, align 8
  store i64 0, ptr %19, align 8
  call void (ptr, ...) @cli_errmsg(ptr noundef nonnull @.str.179) #16
  br label %56

fmap_need_off_once_len.exit:                      ; preds = %28
  store ptr %32, ptr %21, align 8
  store i64 %spec.select.i, ptr %19, align 8
  %33 = add i64 %spec.select.i, %.038
  br label %34

34:                                               ; preds = %fmap_need_off_once_len.exit, %22
  %.139 = phi i64 [ %.038, %22 ], [ %33, %fmap_need_off_once_len.exit ]
  %35 = call i32 @cli_XzDecode(ptr noundef nonnull %4) #16
  %.not55 = icmp eq i32 %35, 2
  switch i32 %35, label %38 [
    i32 2, label %39
    i32 0, label %39
    i32 3, label %36
  ]

36:                                               ; preds = %34
  %37 = call i32 @cli_append_potentially_unwanted(ptr noundef %0, ptr noundef nonnull @.str.180) #16
  br label %56

38:                                               ; preds = %34
  call void (ptr, ...) @cli_errmsg(ptr noundef nonnull @.str.181, i32 noundef %35) #16
  br label %56

39:                                               ; preds = %34, %34
  %40 = load i64, ptr %10, align 8
  %41 = icmp eq i64 %40, 0
  %or.cond3 = or i1 %.not55, %41
  br i1 %or.cond3, label %42, label %52

42:                                               ; preds = %39
  %43 = sub i64 1048576, %40
  %44 = add i64 %43, %.040
  %45 = load i32, ptr %2, align 4
  %46 = call i64 @cli_writen(i32 noundef %45, ptr noundef nonnull %5, i64 noundef %43) #16
  %.not49 = icmp eq i64 %46, %43
  br i1 %.not49, label %48, label %47

47:                                               ; preds = %42
  call void (ptr, ...) @cli_errmsg(ptr noundef nonnull @.str.182) #16
  br label %56

48:                                               ; preds = %42
  %49 = call i32 @cli_checklimits(ptr noundef nonnull @.str.183, ptr noundef %0, i64 noundef %44, i64 noundef 0, i64 noundef 0) #16
  %.not50 = icmp eq i32 %49, 0
  br i1 %.not50, label %51, label %50

50:                                               ; preds = %48
  call void (ptr, ...) @cli_warnmsg(ptr noundef nonnull @.str.184, i64 noundef %44) #16
  br label %.loopexit56

51:                                               ; preds = %48
  store ptr %5, ptr %9, align 8
  store i64 1048576, ptr %10, align 8
  br label %52

52:                                               ; preds = %51, %39
  %.141 = phi i64 [ %44, %51 ], [ %.040, %39 ]
  br i1 %.not55, label %.loopexit56, label %22

.loopexit56:                                      ; preds = %52, %50
  %53 = load i32, ptr %2, align 4
  %54 = load ptr, ptr %3, align 8
  %55 = call i32 @cli_magic_scan_desc_type(i32 noundef %53, ptr noundef %54, ptr noundef %0, i32 noundef 0, ptr noundef null, i32 noundef 0)
  br label %56

56:                                               ; preds = %.loopexit56, %47, %38, %36, %fmap_need_off_once_len.exit.thread
  %.037 = phi i32 [ %37, %36 ], [ 26, %38 ], [ 14, %47 ], [ %55, %.loopexit56 ], [ 26, %fmap_need_off_once_len.exit.thread ]
  call void @cli_XzShutdown(ptr noundef nonnull %4) #16
  %57 = load i32, ptr %2, align 4
  %58 = call i32 @close(i32 noundef %57) #16
  %59 = getelementptr inbounds nuw i8, ptr %0, i64 48
  %60 = load ptr, ptr %59, align 8
  %61 = getelementptr inbounds nuw i8, ptr %60, i64 40
  %62 = load i32, ptr %61, align 8
  %.not51 = icmp eq i32 %62, 0
  br i1 %.not51, label %63, label %68

63:                                               ; preds = %56
  %64 = load ptr, ptr %3, align 8
  %65 = call i32 @cli_unlink(ptr noundef %64) #16
  %66 = icmp ne i32 %65, 0
  %67 = icmp eq i32 %.037, 0
  %or.cond5 = select i1 %66, i1 %67, i1 false
  %spec.store.select = select i1 %or.cond5, i32 10, i32 %.037
  br label %68

68:                                               ; preds = %63, %56
  %.1 = phi i32 [ %.037, %56 ], [ %spec.store.select, %63 ]
  %69 = load ptr, ptr %3, align 8
  call void @free(ptr noundef %69) #16
  call void @free(ptr noundef %5) #16
  br label %70

70:                                               ; preds = %68, %17, %12, %7
  %.0 = phi i32 [ 20, %7 ], [ 8, %12 ], [ %16, %17 ], [ %.1, %68 ]
  ret i32 %.0
}